target datalayout = "e-m:e-p270:32:32-p271:32:32-p272:64:64-i64:64-i128:128-f80:128-n8:16:32:64-S128"
target triple = "x86_64-pc-linux-gnu"

%"class.std::__cxx11::basic_string" = type { %"struct.std::__cxx11::basic_string<char>::_Alloc_hider", i64, %union.anon }
%"struct.std::__cxx11::basic_string<char>::_Alloc_hider" = type { ptr }
%union.anon = type { i64, [8 x i8] }
%"class.std::shared_ptr" = type { %"class.std::__shared_ptr" }
%"class.std::__shared_ptr" = type { ptr, %"class.std::__shared_count" }
%"class.std::__shared_count" = type { ptr }
%"class.open_spiel::cliff_walking::CliffWalkingState" = type { %"class.open_spiel::State.base", i32, i32, i32, i32, i32, i32, [4 x i8] }
%"class.open_spiel::State.base" = type <{ ptr, %"class.std::shared_ptr", i32, i32, %"class.std::vector", i32 }>
%"class.std::vector" = type { %"struct.std::_Vector_base" }
%"struct.std::_Vector_base" = type { %"struct.std::_Vector_base<open_spiel::State::PlayerAction, std::allocator<open_spiel::State::PlayerAction>>::_Vector_impl" }
%"struct.std::_Vector_base<open_spiel::State::PlayerAction, std::allocator<open_spiel::State::PlayerAction>>::_Vector_impl" = type { %"struct.std::_Vector_base<open_spiel::State::PlayerAction, std::allocator<open_spiel::State::PlayerAction>>::_Vector_impl_data" }
%"struct.std::_Vector_base<open_spiel::State::PlayerAction, std::allocator<open_spiel::State::PlayerAction>>::_Vector_impl_data" = type { ptr, ptr, ptr }

; Function Attrs: mustprogress nounwind uwtable
define noundef zeroext i1 @_ZNK10open_spiel13cliff_walking17CliffWalkingState6IsGoalEii(ptr noundef nonnull align 8 dereferenceable(84) %0, i32 noundef %1, i32 noundef %2) #5 align 2 {
  %4 = alloca ptr, align 8
  %5 = alloca i32, align 4
  %6 = alloca i32, align 4
  store ptr %0, ptr %4, align 8
  store i32 %1, ptr %5, align 4
  store i32 %2, ptr %6, align 4
  %7 = load ptr, ptr %4, align 8
  %8 = load i32, ptr %5, align 4
  %9 = getelementptr inbounds nuw %"class.open_spiel::cliff_walking::CliffWalkingState", ptr %7, i32 0, i32 1
  %10 = load i32, ptr %9, align 4
  %11 = sub nsw i32 %10, 1
  %12 = icmp eq i32 %8, %11
  br i1 %12, label %13, label %19

13:                                               ; preds = %3
  %14 = load i32, ptr %6, align 4
  %15 = getelementptr inbounds nuw %"class.open_spiel::cliff_walking::CliffWalkingState", ptr %7, i32 0, i32 2
  %16 = load i32, ptr %15, align 8
  %17 = sub nsw i32 %16, 1
  %18 = icmp eq i32 %14, %17
  br label %19

19:                                               ; preds = %13, %3
  %20 = phi i1 [ false, %3 ], [ %18, %13 ]
  ret i1 %20
}

; Function Attrs: mustprogress nounwind uwtable
define noundef zeroext i1 @_ZNK10open_spiel13cliff_walking17CliffWalkingState7IsCliffEii(ptr noundef nonnull align 8 dereferenceable(84) %0, i32 noundef %1, i32 noundef %2) #5 align 2 {
  %4 = alloca ptr, align 8
  %5 = alloca i32, align 4
  %6 = alloca i32, align 4
  store ptr %0, ptr %4, align 8
  store i32 %1, ptr %5, align 4
  store i32 %2, ptr %6, align 4
  %7 = load ptr, ptr %4, align 8
  %8 = load i32, ptr %6, align 4
  %9 = icmp sgt i32 %8, 0
  br i1 %9, label %10, label %22

10:                                               ; preds = %3
  %11 = load i32, ptr %6, align 4
  %12 = getelementptr inbounds nuw %"class.open_spiel::cliff_walking::CliffWalkingState", ptr %7, i32 0, i32 2
  %13 = load i32, ptr %12, align 8
  %14 = sub nsw i32 %13, 1
  %15 = icmp slt i32 %11, %14
  br i1 %15, label %16, label %22

16:                                               ; preds = %10
  %17 = load i32, ptr %5, align 4
  %18 = getelementptr inbounds nuw %"class.open_spiel::cliff_walking::CliffWalkingState", ptr %7, i32 0, i32 1
  %19 = load i32, ptr %18, align 4
  %20 = sub nsw i32 %19, 1
  %21 = icmp eq i32 %17, %20
  br label %22

22:                                               ; preds = %16, %10, %3
  %23 = phi i1 [ false, %10 ], [ false, %3 ], [ %21, %16 ]
  ret i1 %23
}

; Function Attrs: mustprogress uwtable
define void @_ZNK10open_spiel13cliff_walking17CliffWalkingState8ToStringB5cxx11Ev(ptr dead_on_unwind noalias writable sret(%"class.std::__cxx11::basic_string") align 8 %0, ptr noundef nonnull align 8 dereferenceable(84) %1) unnamed_addr #4 align 2 personality ptr @__gxx_personality_v0 {
  %3 = alloca ptr, align 8
  %4 = alloca ptr, align 8
  %5 = alloca i1, align 1
  %6 = alloca ptr, align 8
  %7 = alloca i32, align 4
  %8 = alloca i32, align 4
  %9 = alloca i32, align 4
  store ptr %0, ptr %3, align 8
  store ptr %1, ptr %4, align 8
  %10 = load ptr, ptr %4, align 8
  store i1 false, ptr %5, align 1
  call void @_ZNSt7__cxx1112basic_stringIcSt11char_traitsIcESaIcEEC1Ev(ptr noundef nonnull align 8 dereferenceable(32) %0) #3
  %11 = getelementptr inbounds nuw %"class.open_spiel::cliff_walking::CliffWalkingState", ptr %10, i32 0, i32 1
  %12 = load i32, ptr %11, align 4
  %13 = getelementptr inbounds nuw %"class.open_spiel::cliff_walking::CliffWalkingState", ptr %10, i32 0, i32 2
  %14 = load i32, ptr %13, align 8
  %15 = add nsw i32 %14, 1
  %16 = mul nsw i32 %12, %15
  %17 = sext i32 %16 to i64
  invoke void @_ZNSt7__cxx1112basic_stringIcSt11char_traitsIcESaIcEE7reserveEm(ptr noundef nonnull align 8 dereferenceable(32) %0, i64 noundef %17)
          to label %18 unwind label %43

18:                                               ; preds = %2
  store i32 0, ptr %8, align 4
  br label %19

19:                                               ; preds = %75, %18
  %20 = load i32, ptr %8, align 4
  %21 = getelementptr inbounds nuw %"class.open_spiel::cliff_walking::CliffWalkingState", ptr %10, i32 0, i32 1
  %22 = load i32, ptr %21, align 4
  %23 = icmp slt i32 %20, %22
  br i1 %23, label %24, label %78

24:                                               ; preds = %19
  store i32 0, ptr %9, align 4
  br label %25

25:                                               ; preds = %69, %24
  %26 = load i32, ptr %9, align 4
  %27 = getelementptr inbounds nuw %"class.open_spiel::cliff_walking::CliffWalkingState", ptr %10, i32 0, i32 2
  %28 = load i32, ptr %27, align 8
  %29 = icmp slt i32 %26, %28
  br i1 %29, label %30, label %72

30:                                               ; preds = %25
  %31 = load i32, ptr %8, align 4
  %32 = getelementptr inbounds nuw %"class.open_spiel::cliff_walking::CliffWalkingState", ptr %10, i32 0, i32 4
  %33 = load i32, ptr %32, align 8
  %34 = icmp eq i32 %31, %33
  br i1 %34, label %35, label %47

35:                                               ; preds = %30
  %36 = load i32, ptr %9, align 4
  %37 = getelementptr inbounds nuw %"class.open_spiel::cliff_walking::CliffWalkingState", ptr %10, i32 0, i32 5
  %38 = load i32, ptr %37, align 4
  %39 = icmp eq i32 %36, %38
  br i1 %39, label %40, label %47

40:                                               ; preds = %35
  %41 = invoke noundef nonnull align 8 dereferenceable(32) ptr @_ZNSt7__cxx1112basic_stringIcSt11char_traitsIcESaIcEEpLEc(ptr noundef nonnull align 8 dereferenceable(32) %0, i8 noundef signext 80)
          to label %42 unwind label %43

42:                                               ; preds = %40
  br label %68

43:                                               ; preds = %72, %63, %60, %55, %52, %47, %40, %2
  %44 = landingpad { ptr, i32 }
          cleanup
  %45 = extractvalue { ptr, i32 } %44, 0
  store ptr %45, ptr %6, align 8
  %46 = extractvalue { ptr, i32 } %44, 1
  store i32 %46, ptr %7, align 4
  call void @_ZNSt7__cxx1112basic_stringIcSt11char_traitsIcESaIcEED1Ev(ptr noundef nonnull align 8 dereferenceable(32) %0) #3
  br label %82

47:                                               ; preds = %35, %30
  %48 = load i32, ptr %8, align 4
  %49 = load i32, ptr %9, align 4
  %50 = invoke noundef zeroext i1 @_ZNK10open_spiel13cliff_walking17CliffWalkingState7IsCliffEii(ptr noundef nonnull align 8 dereferenceable(84) %10, i32 noundef %48, i32 noundef %49)
          to label %51 unwind label %43

51:                                               ; preds = %47
  br i1 %50, label %52, label %55

52:                                               ; preds = %51
  %53 = invoke noundef nonnull align 8 dereferenceable(32) ptr @_ZNSt7__cxx1112basic_stringIcSt11char_traitsIcESaIcEEpLEc(ptr noundef nonnull align 8 dereferenceable(32) %0, i8 noundef signext 88)
          to label %54 unwind label %43

54:                                               ; preds = %52
  br label %67

55:                                               ; preds = %51
  %56 = load i32, ptr %8, align 4
  %57 = load i32, ptr %9, align 4
  %58 = invoke noundef zeroext i1 @_ZNK10open_spiel13cliff_walking17CliffWalkingState6IsGoalEii(ptr noundef nonnull align 8 dereferenceable(84) %10, i32 noundef %56, i32 noundef %57)
          to label %59 unwind label %43

59:                                               ; preds = %55
  br i1 %58, label %60, label %63

60:                                               ; preds = %59
  %61 = invoke noundef nonnull align 8 dereferenceable(32) ptr @_ZNSt7__cxx1112basic_stringIcSt11char_traitsIcESaIcEEpLEc(ptr noundef nonnull align 8 dereferenceable(32) %0, i8 noundef signext 71)
          to label %62 unwind label %43

62:                                               ; preds = %60
  br label %66

63:                                               ; preds = %59
  %64 = invoke noundef nonnull align 8 dereferenceable(32) ptr @_ZNSt7__cxx1112basic_stringIcSt11char_traitsIcESaIcEEpLEc(ptr noundef nonnull align 8 dereferenceable(32) %0, i8 noundef signext 46)
          to label %65 unwind label %43

65:                                               ; preds = %63
  br label %66

66:                                               ; preds = %65, %62
  br label %67

67:                                               ; preds = %66, %54
  br label %68

68:                                               ; preds = %67, %42
  br label %69

69:                                               ; preds = %68
  %70 = load i32, ptr %9, align 4
  %71 = add nsw i32 %70, 1
  store i32 %71, ptr %9, align 4
  br label %25, !llvm.loop !4

72:                                               ; preds = %25
  %73 = invoke noundef nonnull align 8 dereferenceable(32) ptr @_ZNSt7__cxx1112basic_stringIcSt11char_traitsIcESaIcEEpLEc(ptr noundef nonnull align 8 dereferenceable(32) %0, i8 noundef signext 10)
          to label %74 unwind label %43

74:                                               ; preds = %72
  br label %75

75:                                               ; preds = %74
  %76 = load i32, ptr %8, align 4
  %77 = add nsw i32 %76, 1
  store i32 %77, ptr %8, align 4
  br label %19, !llvm.loop !6

78:                                               ; preds = %19
  store i1 true, ptr %5, align 1
  %79 = load i1, ptr %5, align 1
  br i1 %79, label %81, label %80

80:                                               ; preds = %78
  call void @_ZNSt7__cxx1112basic_stringIcSt11char_traitsIcESaIcEED1Ev(ptr noundef nonnull align 8 dereferenceable(32) %0) #3
  br label %81

81:                                               ; preds = %80, %78
  ret void

82:                                               ; preds = %43
  %83 = load ptr, ptr %6, align 8
  %84 = load i32, ptr %7, align 4
  %85 = insertvalue { ptr, i32 } poison, ptr %83, 0
  %86 = insertvalue { ptr, i32 } %85, i32 %84, 1
  resume { ptr, i32 } %86
}