; Function Attrs: mustprogress uwtable
define void @_ZNK10open_spiel13cliff_walking17CliffWalkingState8ToStringB5cxx11Ev(ptr dead_on_unwind noalias nonnull writable sret(%"class.std::__cxx11::basic_string") align 8 %0, ptr noundef nonnull readonly align 8 captures(none) dereferenceable(84) %1) unnamed_addr #3 align 2 personality ptr @__gxx_personality_v0 {
  tail call void @_ZNSt7__cxx1112basic_stringIcSt11char_traitsIcESaIcEEC1Ev(ptr noundef nonnull align 8 dereferenceable(32) %0) #24
  %3 = getelementptr inbounds nuw i8, ptr %1, i64 60
  %4 = load i32, ptr %3, align 4
  %5 = getelementptr inbounds nuw i8, ptr %1, i64 64
  %6 = load i32, ptr %5, align 8
  %7 = add nsw i32 %6, 1
  %8 = mul nsw i32 %7, %4
  %9 = sext i32 %8 to i64
  invoke void @_ZNSt7__cxx1112basic_stringIcSt11char_traitsIcESaIcEE7reserveEm(ptr noundef nonnull align 8 dereferenceable(32) %0, i64 noundef %9)
          to label %.preheader18 unwind label %.loopexit.split-lp.loopexit.split-lp

.preheader18:                                     ; preds = %2
  %10 = load i32, ptr %3, align 4
  %11 = icmp sgt i32 %10, 0
  br i1 %11, label %.preheader.lr.ph, label %._crit_edge24

.preheader.lr.ph:                                 ; preds = %.preheader18
  %12 = getelementptr inbounds nuw i8, ptr %1, i64 72
  %13 = getelementptr inbounds nuw i8, ptr %1, i64 76
  br label %.preheader

.preheader:                                       ; preds = %.preheader.lr.ph, %37
  %.01323 = phi i32 [ 0, %.preheader.lr.ph ], [ %38, %37 ]
  %14 = load i32, ptr %5, align 8
  %15 = icmp sgt i32 %14, 0
  br i1 %15, label %.lr.ph, label %._crit_edge

.lr.ph:                                           ; preds = %.preheader, %32
  %16 = phi i32 [ %34, %32 ], [ %14, %.preheader ]
  %.022 = phi i32 [ %33, %32 ], [ 0, %.preheader ]
  %17 = load i32, ptr %12, align 8
  %18 = icmp eq i32 %.01323, %17
  %19 = load i32, ptr %13, align 4
  %20 = icmp eq i32 %.022, %19
  %or.cond = select i1 %18, i1 %20, i1 false
  br i1 %or.cond, label %.invoke, label %23

.invoke:                                          ; preds = %.lr.ph, %_ZNK10open_spiel13cliff_walking17CliffWalkingState7IsCliffEii.exit.thread, %23
  %21 = phi i8 [ 88, %23 ], [ %., %_ZNK10open_spiel13cliff_walking17CliffWalkingState7IsCliffEii.exit.thread ], [ 80, %.lr.ph ]
  %22 = invoke noundef nonnull align 8 dereferenceable(32) ptr @_ZNSt7__cxx1112basic_stringIcSt11char_traitsIcESaIcEEpLEc(ptr noundef nonnull align 8 dereferenceable(32) %0, i8 noundef signext %21)
          to label %32 unwind label %.loopexit

.loopexit:                                        ; preds = %.invoke
  %lpad.loopexit = landingpad { ptr, i32 }
          cleanup
  br label %.loopexit.split-lp

.loopexit.split-lp.loopexit:                      ; preds = %._crit_edge
  %lpad.loopexit19 = landingpad { ptr, i32 }
          cleanup
  br label %.loopexit.split-lp

.loopexit.split-lp.loopexit.split-lp:             ; preds = %2
  %lpad.loopexit.split-lp20 = landingpad { ptr, i32 }
          cleanup
  br label %.loopexit.split-lp

.loopexit.split-lp:                               ; preds = %.loopexit.split-lp.loopexit, %.loopexit.split-lp.loopexit.split-lp, %.loopexit
  %lpad.phi = phi { ptr, i32 } [ %lpad.loopexit, %.loopexit ], [ %lpad.loopexit19, %.loopexit.split-lp.loopexit ], [ %lpad.loopexit.split-lp20, %.loopexit.split-lp.loopexit.split-lp ]
  tail call void @_ZNSt7__cxx1112basic_stringIcSt11char_traitsIcESaIcEED1Ev(ptr noundef nonnull align 8 dereferenceable(32) %0) #24
  resume { ptr, i32 } %lpad.phi

23:                                               ; preds = %.lr.ph
  %24 = icmp ne i32 %.022, 0
  %25 = add nsw i32 %16, -1
  %26 = icmp slt i32 %.022, %25
  %or.cond17 = select i1 %24, i1 %26, i1 false
  %.pre = load i32, ptr %3, align 4
  %27 = add nsw i32 %.pre, -1
  %28 = icmp eq i32 %.01323, %27
  %or.cond26 = select i1 %or.cond17, i1 %28, i1 false
  br i1 %or.cond26, label %.invoke, label %_ZNK10open_spiel13cliff_walking17CliffWalkingState7IsCliffEii.exit.thread

_ZNK10open_spiel13cliff_walking17CliffWalkingState7IsCliffEii.exit.thread: ; preds = %23
  %29 = icmp eq i32 %.01323, %27
  %30 = icmp eq i32 %.022, %25
  %31 = select i1 %29, i1 %30, i1 false
  %. = select i1 %31, i8 71, i8 46
  br label %.invoke

32:                                               ; preds = %.invoke
  %33 = add nuw nsw i32 %.022, 1
  %34 = load i32, ptr %5, align 8
  %35 = icmp slt i32 %33, %34
  br i1 %35, label %.lr.ph, label %._crit_edge, !llvm.loop !4

._crit_edge:                                      ; preds = %32, %.preheader
  %36 = invoke noundef nonnull align 8 dereferenceable(32) ptr @_ZNSt7__cxx1112basic_stringIcSt11char_traitsIcESaIcEEpLEc(ptr noundef nonnull align 8 dereferenceable(32) %0, i8 noundef signext 10)
          to label %37 unwind label %.loopexit.split-lp.loopexit

37:                                               ; preds = %._crit_edge
  %38 = add nuw nsw i32 %.01323, 1
  %39 = load i32, ptr %3, align 4
  %40 = icmp slt i32 %38, %39
  br i1 %40, label %.preheader, label %._crit_edge24, !llvm.loop !6

._crit_edge24:                                    ; preds = %37, %.preheader18
  ret void
}